target datalayout = "e-m:e-p270:32:32-p271:32:32-p272:64:64-i64:64-i128:128-f80:128-n8:16:32:64-S128"
target triple = "x86_64-pc-linux-gnu"

%class.QString = type { ptr }
%class.QDir = type { %class.QSharedDataPointer.70 }
%class.QSharedDataPointer.70 = type { ptr }

@_ZN16QCoreApplication4selfE = external global ptr, align 8

; Function Attrs: mustprogress nounwind uwtable
define linkonce_odr noundef ptr @_ZN16QCoreApplication8instanceEv() #4 comdat align 2 {
  %1 = load ptr, ptr @_ZN16QCoreApplication4selfE, align 8
  ret ptr %1
}

; Function Attrs: mustprogress uwtable
define void @_ZN13PluginManager11loadPluginsEv(ptr noundef nonnull align 8 dereferenceable(272) %0) #5 align 2 personality ptr @__gxx_personality_v0 {
  %2 = alloca ptr, align 8
  %3 = alloca %class.QString, align 8
  %4 = alloca ptr, align 8
  %5 = alloca i32, align 4
  %6 = alloca %class.QDir, align 8
  %7 = alloca %class.QString, align 8
  store ptr %0, ptr %2, align 8
  %8 = load ptr, ptr %2, align 8
  %9 = call noundef ptr @_ZN16QCoreApplication8instanceEv()
  call void @_ZN7meshlab17defaultPluginPathEv(ptr dead_on_unwind writable sret(%class.QString) align 8 %3)
  invoke void @_ZN16QCoreApplication14addLibraryPathERK7QString(ptr noundef nonnull align 8 dereferenceable(8) %3)
          to label %10 unwind label %13

10:                                               ; preds = %1
  call void @_ZN7QStringD2Ev(ptr noundef nonnull align 8 dereferenceable(8) %3) #3
  call void @_ZN7meshlab17defaultPluginPathEv(ptr dead_on_unwind writable sret(%class.QString) align 8 %7)
  invoke void @_ZN4QDirC1ERK7QString(ptr noundef nonnull align 8 dereferenceable(8) %6, ptr noundef nonnull align 8 dereferenceable(8) %7)
          to label %11 unwind label %17

11:                                               ; preds = %10
  invoke void @_ZN13PluginManager11loadPluginsE4QDir(ptr noundef nonnull align 8 dereferenceable(272) %8, ptr noundef %6)
          to label %12 unwind label %21

12:                                               ; preds = %11
  call void @_ZN4QDirD1Ev(ptr noundef nonnull align 8 dereferenceable(8) %6) #3
  call void @_ZN7QStringD2Ev(ptr noundef nonnull align 8 dereferenceable(8) %7) #3
  ret void

13:                                               ; preds = %1
  %14 = landingpad { ptr, i32 }
          cleanup
  %15 = extractvalue { ptr, i32 } %14, 0
  store ptr %15, ptr %4, align 8
  %16 = extractvalue { ptr, i32 } %14, 1
  store i32 %16, ptr %5, align 4
  call void @_ZN7QStringD2Ev(ptr noundef nonnull align 8 dereferenceable(8) %3) #3
  br label %26

17:                                               ; preds = %10
  %18 = landingpad { ptr, i32 }
          cleanup
  %19 = extractvalue { ptr, i32 } %18, 0
  store ptr %19, ptr %4, align 8
  %20 = extractvalue { ptr, i32 } %18, 1
  store i32 %20, ptr %5, align 4
  br label %25

21:                                               ; preds = %11
  %22 = landingpad { ptr, i32 }
          cleanup
  %23 = extractvalue { ptr, i32 } %22, 0
  store ptr %23, ptr %4, align 8
  %24 = extractvalue { ptr, i32 } %22, 1
  store i32 %24, ptr %5, align 4
  call void @_ZN4QDirD1Ev(ptr noundef nonnull align 8 dereferenceable(8) %6) #3
  br label %25

25:                                               ; preds = %21, %17
  call void @_ZN7QStringD2Ev(ptr noundef nonnull align 8 dereferenceable(8) %7) #3
  br label %26

26:                                               ; preds = %25, %13
  %27 = load ptr, ptr %4, align 8
  %28 = load i32, ptr %5, align 4
  %29 = insertvalue { ptr, i32 } poison, ptr %27, 0
  %30 = insertvalue { ptr, i32 } %29, i32 %28, 1
  resume { ptr, i32 } %30
}