; Function Attrs: mustprogress uwtable
define void @_ZN13PluginManager11loadPluginsEv(ptr noundef nonnull align 8 dereferenceable(272) %0) local_unnamed_addr #9 align 2 personality ptr @__gxx_personality_v0 {
  %2 = alloca %class.QString, align 8
  %3 = alloca %class.QDir, align 8
  %4 = alloca %class.QString, align 8
  call void @_ZN7meshlab17defaultPluginPathEv(ptr dead_on_unwind nonnull writable sret(%class.QString) align 8 %2)
  invoke void @_ZN16QCoreApplication14addLibraryPathERK7QString(ptr noundef nonnull align 8 dereferenceable(8) %2)
          to label %5 unwind label %16

5:                                                ; preds = %1
  %6 = load ptr, ptr %2, align 8
  %7 = load atomic i32, ptr %6 monotonic, align 4
  switch i32 %7, label %_ZN9QtPrivate8RefCount5derefEv.exit.i [
    i32 0, label %_ZN9QtPrivate8RefCount5derefEv.exit.thread2.i
    i32 -1, label %_ZN7QStringD2Ev.exit
  ]

_ZN9QtPrivate8RefCount5derefEv.exit.i:            ; preds = %5
  %8 = atomicrmw sub ptr %6, i32 1 seq_cst, align 4
  %.not.i = icmp eq i32 %8, 1
  br i1 %.not.i, label %_ZN9QtPrivate8RefCount5derefEv.exit._ZN9QtPrivate8RefCount5derefEv.exit.thread2_crit_edge.i, label %_ZN7QStringD2Ev.exit

_ZN9QtPrivate8RefCount5derefEv.exit._ZN9QtPrivate8RefCount5derefEv.exit.thread2_crit_edge.i: ; preds = %_ZN9QtPrivate8RefCount5derefEv.exit.i
  %.pre.i = load ptr, ptr %2, align 8
  br label %_ZN9QtPrivate8RefCount5derefEv.exit.thread2.i

_ZN9QtPrivate8RefCount5derefEv.exit.thread2.i:    ; preds = %_ZN9QtPrivate8RefCount5derefEv.exit._ZN9QtPrivate8RefCount5derefEv.exit.thread2_crit_edge.i, %5
  %9 = phi ptr [ %.pre.i, %_ZN9QtPrivate8RefCount5derefEv.exit._ZN9QtPrivate8RefCount5derefEv.exit.thread2_crit_edge.i ], [ %6, %5 ]
  call void @_ZN10QArrayData10deallocateEPS_mm(ptr noundef %9, i64 noundef 2, i64 noundef 8) #26
  br label %_ZN7QStringD2Ev.exit

_ZN7QStringD2Ev.exit:                             ; preds = %5, %_ZN9QtPrivate8RefCount5derefEv.exit.i, %_ZN9QtPrivate8RefCount5derefEv.exit.thread2.i
  call void @_ZN7meshlab17defaultPluginPathEv(ptr dead_on_unwind nonnull writable sret(%class.QString) align 8 %4)
  invoke void @_ZN4QDirC1ERK7QString(ptr noundef nonnull align 8 dereferenceable(8) %3, ptr noundef nonnull align 8 dereferenceable(8) %4)
          to label %10 unwind label %18

10:                                               ; preds = %_ZN7QStringD2Ev.exit
  invoke void @_ZN13PluginManager11loadPluginsE4QDir(ptr noundef nonnull align 8 dereferenceable(272) %0, ptr noundef nonnull %3)
          to label %11 unwind label %20

11:                                               ; preds = %10
  call void @_ZN4QDirD1Ev(ptr noundef nonnull align 8 dereferenceable(8) %3) #26
  %12 = load ptr, ptr %4, align 8
  %13 = load atomic i32, ptr %12 monotonic, align 4
  switch i32 %13, label %_ZN9QtPrivate8RefCount5derefEv.exit.i7 [
    i32 0, label %_ZN9QtPrivate8RefCount5derefEv.exit.thread2.i6
    i32 -1, label %_ZN7QStringD2Ev.exit11
  ]

_ZN9QtPrivate8RefCount5derefEv.exit.i7:           ; preds = %11
  %14 = atomicrmw sub ptr %12, i32 1 seq_cst, align 4
  %.not.i8 = icmp eq i32 %14, 1
  br i1 %.not.i8, label %_ZN9QtPrivate8RefCount5derefEv.exit._ZN9QtPrivate8RefCount5derefEv.exit.thread2_crit_edge.i9, label %_ZN7QStringD2Ev.exit11

_ZN9QtPrivate8RefCount5derefEv.exit._ZN9QtPrivate8RefCount5derefEv.exit.thread2_crit_edge.i9: ; preds = %_ZN9QtPrivate8RefCount5derefEv.exit.i7
  %.pre.i10 = load ptr, ptr %4, align 8
  br label %_ZN9QtPrivate8RefCount5derefEv.exit.thread2.i6

_ZN9QtPrivate8RefCount5derefEv.exit.thread2.i6:   ; preds = %_ZN9QtPrivate8RefCount5derefEv.exit._ZN9QtPrivate8RefCount5derefEv.exit.thread2_crit_edge.i9, %11
  %15 = phi ptr [ %.pre.i10, %_ZN9QtPrivate8RefCount5derefEv.exit._ZN9QtPrivate8RefCount5derefEv.exit.thread2_crit_edge.i9 ], [ %12, %11 ]
  call void @_ZN10QArrayData10deallocateEPS_mm(ptr noundef %15, i64 noundef 2, i64 noundef 8) #26
  br label %_ZN7QStringD2Ev.exit11

_ZN7QStringD2Ev.exit11:                           ; preds = %11, %_ZN9QtPrivate8RefCount5derefEv.exit.i7, %_ZN9QtPrivate8RefCount5derefEv.exit.thread2.i6
  ret void

16:                                               ; preds = %1
  %17 = landingpad { ptr, i32 }
          cleanup
  br label %22

18:                                               ; preds = %_ZN7QStringD2Ev.exit
  %19 = landingpad { ptr, i32 }
          cleanup
  br label %22

20:                                               ; preds = %10
  %21 = landingpad { ptr, i32 }
          cleanup
  call void @_ZN4QDirD1Ev(ptr noundef nonnull align 8 dereferenceable(8) %3) #26
  br label %22

22:                                               ; preds = %18, %20, %16
  %.sink = phi ptr [ %2, %16 ], [ %4, %20 ], [ %4, %18 ]
  %.pn.pn = phi { ptr, i32 } [ %17, %16 ], [ %21, %20 ], [ %19, %18 ]
  call void @_ZN7QStringD2Ev(ptr noundef nonnull align 8 dereferenceable(8) %.sink) #26
  resume { ptr, i32 } %.pn.pn
}